; ModuleID = '45/1065.c'
source_filename = "45/1065.c"
target datalayout = "e-m:e-p270:32:32-p271:32:32-p272:64:64-i64:64-f80:128-n8:16:32:64-S128"
target triple = "x86_64-pc-linux-gnu"

@.str = private unnamed_addr constant [3 x i8] c"%s\00", align 1
@.str.1 = private unnamed_addr constant [3 x i8] c"%d\00", align 1

; Function Attrs: noinline nounwind uwtable
define dso_local i32 @main() #0 {
  %1 = alloca i32, align 4
  %2 = alloca [2 x [50 x i8]], align 16
  %3 = alloca [50 x i32], align 16
  %4 = alloca i32, align 4
  %5 = alloca i32, align 4
  %6 = alloca i32, align 4
  %7 = alloca i32, align 4
  %8 = alloca i32, align 4
  %9 = alloca [50 x i32], align 16
  %10 = alloca i32, align 4
  %11 = alloca i32, align 4
  store i32 0, i32* %1, align 4
  store i32 0, i32* %7, align 4
  %12 = bitcast [50 x i32]* %9 to i8*
  call void @llvm.memset.p0i8.i64(i8* align 16 %12, i8 0, i64 200, i1 false)
  store i32 0, i32* %4, align 4
  br label %13

13:                                               ; preds = %22, %0
  %14 = load i32, i32* %4, align 4
  %15 = icmp slt i32 %14, 2
  br i1 %15, label %16, label %25

16:                                               ; preds = %13
  %17 = load i32, i32* %4, align 4
  %18 = sext i32 %17 to i64
  %19 = getelementptr inbounds [2 x [50 x i8]], [2 x [50 x i8]]* %2, i64 0, i64 %18
  %20 = getelementptr inbounds [50 x i8], [50 x i8]* %19, i64 0, i64 0
  %21 = call i32 (i8*, ...) @__isoc99_scanf(i8* getelementptr inbounds ([3 x i8], [3 x i8]* @.str, i64 0, i64 0), i8* %20)
  br label %22

22:                                               ; preds = %16
  %23 = load i32, i32* %4, align 4
  %24 = add nsw i32 %23, 1
  store i32 %24, i32* %4, align 4
  br label %13

25:                                               ; preds = %13
  %26 = getelementptr inbounds [2 x [50 x i8]], [2 x [50 x i8]]* %2, i64 0, i64 0
  %27 = getelementptr inbounds [50 x i8], [50 x i8]* %26, i64 0, i64 0
  %28 = call i64 @strlen(i8* %27) #4
  %29 = trunc i64 %28 to i32
  store i32 %29, i32* %5, align 4
  %30 = getelementptr inbounds [2 x [50 x i8]], [2 x [50 x i8]]* %2, i64 0, i64 1
  %31 = getelementptr inbounds [50 x i8], [50 x i8]* %30, i64 0, i64 0
  %32 = call i64 @strlen(i8* %31) #4
  %33 = trunc i64 %32 to i32
  store i32 %33, i32* %6, align 4
  store i32 0, i32* %4, align 4
  br label %34

34:                                               ; preds = %58, %25
  %35 = load i32, i32* %4, align 4
  %36 = load i32, i32* %6, align 4
  %37 = icmp slt i32 %35, %36
  br i1 %37, label %38, label %61

38:                                               ; preds = %34
  %39 = getelementptr inbounds [2 x [50 x i8]], [2 x [50 x i8]]* %2, i64 0, i64 0
  %40 = getelementptr inbounds [50 x i8], [50 x i8]* %39, i64 0, i64 0
  %41 = load i8, i8* %40, align 16
  %42 = sext i8 %41 to i32
  %43 = getelementptr inbounds [2 x [50 x i8]], [2 x [50 x i8]]* %2, i64 0, i64 1
  %44 = load i32, i32* %4, align 4
  %45 = sext i32 %44 to i64
  %46 = getelementptr inbounds [50 x i8], [50 x i8]* %43, i64 0, i64 %45
  %47 = load i8, i8* %46, align 1
  %48 = sext i8 %47 to i32
  %49 = icmp eq i32 %42, %48
  br i1 %49, label %50, label %57

50:                                               ; preds = %38
  %51 = load i32, i32* %4, align 4
  %52 = load i32, i32* %7, align 4
  %53 = sext i32 %52 to i64
  %54 = getelementptr inbounds [50 x i32], [50 x i32]* %3, i64 0, i64 %53
  store i32 %51, i32* %54, align 4
  %55 = load i32, i32* %7, align 4
  %56 = add nsw i32 %55, 1
  store i32 %56, i32* %7, align 4
  br label %57

57:                                               ; preds = %50, %38
  br label %58

58:                                               ; preds = %57
  %59 = load i32, i32* %4, align 4
  %60 = add nsw i32 %59, 1
  store i32 %60, i32* %4, align 4
  br label %34

61:                                               ; preds = %34
  store i32 0, i32* %8, align 4
  br label %62

62:                                               ; preds = %111, %61
  %63 = load i32, i32* %8, align 4
  %64 = load i32, i32* %7, align 4
  %65 = icmp slt i32 %63, %64
  br i1 %65, label %66, label %114

66:                                               ; preds = %62
  %67 = load i32, i32* %8, align 4
  %68 = sext i32 %67 to i64
  %69 = getelementptr inbounds [50 x i32], [50 x i32]* %3, i64 0, i64 %68
  %70 = load i32, i32* %69, align 4
  store i32 %70, i32* %4, align 4
  store i32 0, i32* %11, align 4
  br label %71

71:                                               ; preds = %105, %66
  %72 = load i32, i32* %4, align 4
  %73 = load i32, i32* %8, align 4
  %74 = sext i32 %73 to i64
  %75 = getelementptr inbounds [50 x i32], [50 x i32]* %3, i64 0, i64 %74
  %76 = load i32, i32* %75, align 4
  %77 = load i32, i32* %5, align 4
  %78 = add nsw i32 %76, %77
  %79 = icmp slt i32 %72, %78
  %80 = zext i1 %79 to i32
  %81 = load i32, i32* %11, align 4
  %82 = load i32, i32* %5, align 4
  %83 = icmp slt i32 %81, %82
  br i1 %83, label %84, label %110

84:                                               ; preds = %71
  %85 = getelementptr inbounds [2 x [50 x i8]], [2 x [50 x i8]]* %2, i64 0, i64 0
  %86 = load i32, i32* %11, align 4
  %87 = sext i32 %86 to i64
  %88 = getelementptr inbounds [50 x i8], [50 x i8]* %85, i64 0, i64 %87
  %89 = load i8, i8* %88, align 1
  %90 = sext i8 %89 to i32
  %91 = getelementptr inbounds [2 x [50 x i8]], [2 x [50 x i8]]* %2, i64 0, i64 1
  %92 = load i32, i32* %4, align 4
  %93 = sext i32 %92 to i64
  %94 = getelementptr inbounds [50 x i8], [50 x i8]* %91, i64 0, i64 %93
  %95 = load i8, i8* %94, align 1
  %96 = sext i8 %95 to i32
  %97 = icmp ne i32 %90, %96
  br i1 %97, label %98, label %104

98:                                               ; preds = %84
  %99 = load i32, i32* %8, align 4
  %100 = sext i32 %99 to i64
  %101 = getelementptr inbounds [50 x i32], [50 x i32]* %9, i64 0, i64 %100
  %102 = load i32, i32* %101, align 4
  %103 = add nsw i32 %102, 1
  store i32 %103, i32* %101, align 4
  br label %104

104:                                              ; preds = %98, %84
  br label %105

105:                                              ; preds = %104
  %106 = load i32, i32* %4, align 4
  %107 = add nsw i32 %106, 1
  store i32 %107, i32* %4, align 4
  %108 = load i32, i32* %11, align 4
  %109 = add nsw i32 %108, 1
  store i32 %109, i32* %11, align 4
  br label %71

110:                                              ; preds = %71
  br label %111

111:                                              ; preds = %110
  %112 = load i32, i32* %8, align 4
  %113 = add nsw i32 %112, 1
  store i32 %113, i32* %8, align 4
  br label %62

114:                                              ; preds = %62
  store i32 0, i32* %8, align 4
  br label %115

115:                                              ; preds = %131, %114
  %116 = load i32, i32* %8, align 4
  %117 = load i32, i32* %7, align 4
  %118 = icmp slt i32 %116, %117
  br i1 %118, label %119, label %134

119:                                              ; preds = %115
  %120 = load i32, i32* %8, align 4
  %121 = sext i32 %120 to i64
  %122 = getelementptr inbounds [50 x i32], [50 x i32]* %9, i64 0, i64 %121
  %123 = load i32, i32* %122, align 4
  %124 = icmp eq i32 %123, 0
  br i1 %124, label %125, label %130

125:                                              ; preds = %119
  %126 = load i32, i32* %8, align 4
  %127 = sext i32 %126 to i64
  %128 = getelementptr inbounds [50 x i32], [50 x i32]* %3, i64 0, i64 %127
  %129 = load i32, i32* %128, align 4
  store i32 %129, i32* %10, align 4
  br label %134

130:                                              ; preds = %119
  br label %131

131:                                              ; preds = %130
  %132 = load i32, i32* %8, align 4
  %133 = add nsw i32 %132, 1
  store i32 %133, i32* %8, align 4
  br label %115

134:                                              ; preds = %125, %115
  %135 = load i32, i32* %10, align 4
  %136 = call i32 (i8*, ...) @printf(i8* getelementptr inbounds ([3 x i8], [3 x i8]* @.str.1, i64 0, i64 0), i32 %135)
  ret i32 0
}

; Function Attrs: argmemonly nounwind willreturn
declare void @llvm.memset.p0i8.i64(i8* nocapture writeonly, i8, i64, i1 immarg) #1

declare dso_local i32 @__isoc99_scanf(i8*, ...) #2

; Function Attrs: nounwind readonly
declare dso_local i64 @strlen(i8*) #3

declare dso_local i32 @printf(i8*, ...) #2


!llvm.module.flags = !{!0}
!llvm.ident = !{!1}

!0 = !{i32 1, !"wchar_size", i32 4}
!1 = !{!"clang version 10.0.0-4ubuntu1 "}
